; Function Attrs: mustprogress nounwind uwtable
define dso_local void @_ZNK4llvm15TypeSetByHwMode4dumpEv(ptr noundef nonnull align 8 dereferenceable(56) %0) local_unnamed_addr #0 align 2 {
  %2 = tail call noundef nonnull align 8 dereferenceable(48) ptr @_ZN4llvm4dbgsEv() #29
  tail call void @_ZNK4llvm15TypeSetByHwMode13writeToStreamERNS_11raw_ostreamE(ptr noundef nonnull align 8 dereferenceable(56) %0, ptr noundef nonnull align 8 dereferenceable(48) %2)
  %3 = getelementptr inbounds nuw i8, ptr %2, i64 32
  %4 = load ptr, ptr %3, align 8
  %5 = getelementptr inbounds nuw i8, ptr %2, i64 24
  %6 = load ptr, ptr %5, align 8
  %.not.i = icmp ult ptr %4, %6
  br i1 %.not.i, label %9, label %7

7:                                                ; preds = %1
  %8 = tail call noundef nonnull align 8 dereferenceable(48) ptr @_ZN4llvm11raw_ostream5writeEh(ptr noundef nonnull align 8 dereferenceable(48) %2, i8 noundef zeroext 10) #29
  br label %_ZN4llvm11raw_ostreamlsEc.exit

9:                                                ; preds = %1
  %10 = getelementptr inbounds i8, ptr %4, i64 1
  store ptr %10, ptr %3, align 8
  store i8 10, ptr %4, align 1
  br label %_ZN4llvm11raw_ostreamlsEc.exit

_ZN4llvm11raw_ostreamlsEc.exit:                   ; preds = %7, %9
  ret void
}